; Function Attrs: mustprogress uwtable
define noundef nonnull align 8 dereferenceable(64) ptr @_ZNK6icu_775UTS4611nameToASCIIERKNS_13UnicodeStringERS1_RNS_8IDNAInfoER10UErrorCode(ptr noundef nonnull readonly align 8 captures(none) dereferenceable(20) %0, ptr noundef nonnull align 8 dereferenceable(64) %1, ptr noundef nonnull returned align 8 dereferenceable(64) %2, ptr noundef nonnull align 4 captures(none) dereferenceable(11) %3, ptr noundef nonnull align 4 dereferenceable(4) %4) unnamed_addr #1 align 2 {
  %6 = tail call noundef nonnull align 8 dereferenceable(64) ptr @_ZNK6icu_775UTS467processERKNS_13UnicodeStringEaaRS1_RNS_8IDNAInfoER10UErrorCode(ptr noundef nonnull align 8 dereferenceable(20) %0, ptr noundef nonnull align 8 dereferenceable(64) %1, i8 noundef signext 0, i8 noundef signext 1, ptr noundef nonnull align 8 dereferenceable(64) %2, ptr noundef nonnull align 4 dereferenceable(11) %3, ptr noundef nonnull align 4 dereferenceable(4) %4)
  %7 = getelementptr inbounds nuw i8, ptr %2, i64 8
  %8 = load i16, ptr %7, align 8, !tbaa !17
  %9 = icmp slt i16 %8, 0
  %10 = ashr i16 %8, 5
  %11 = sext i16 %10 to i32
  %12 = getelementptr inbounds nuw i8, ptr %2, i64 12
  %13 = load i32, ptr %12, align 4
  %14 = select i1 %9, i32 %13, i32 %11
  %15 = icmp sgt i32 %14, 253
  br i1 %15, label %16, label %_ZN6icu_77L13isASCIIStringERKNS_13UnicodeStringE.exit.thread

16:                                               ; preds = %5
  %17 = load i32, ptr %3, align 4, !tbaa !26
  %18 = and i32 %17, 4
  %19 = icmp eq i32 %18, 0
  br i1 %19, label %20, label %_ZN6icu_77L13isASCIIStringERKNS_13UnicodeStringE.exit.thread

20:                                               ; preds = %16
  %21 = and i16 %8, 17
  %.not.i.i = icmp eq i16 %21, 0
  br i1 %.not.i.i, label %22, label %_ZNK6icu_7713UnicodeString9getBufferEv.exit.i

22:                                               ; preds = %20
  %23 = and i16 %8, 2
  %.not2.i.i = icmp eq i16 %23, 0
  br i1 %.not2.i.i, label %26, label %24

24:                                               ; preds = %22
  %25 = getelementptr inbounds nuw i8, ptr %2, i64 10
  br label %_ZNK6icu_7713UnicodeString9getBufferEv.exit.i

26:                                               ; preds = %22
  %27 = getelementptr inbounds nuw i8, ptr %2, i64 24
  %28 = load ptr, ptr %27, align 8, !tbaa !17
  br label %_ZNK6icu_7713UnicodeString9getBufferEv.exit.i

_ZNK6icu_7713UnicodeString9getBufferEv.exit.i:    ; preds = %26, %24, %20
  %.0.i.i = phi ptr [ %25, %24 ], [ %28, %26 ], [ null, %20 ]
  %29 = zext nneg i32 %14 to i64
  %30 = getelementptr inbounds nuw i16, ptr %.0.i.i, i64 %29
  br label %31

31:                                               ; preds = %33, %_ZNK6icu_7713UnicodeString9getBufferEv.exit.i
  %.06.i = phi ptr [ %.0.i.i, %_ZNK6icu_7713UnicodeString9getBufferEv.exit.i ], [ %34, %33 ]
  %32 = icmp ult ptr %.06.i, %30
  br i1 %32, label %33, label %_ZN6icu_77L13isASCIIStringERKNS_13UnicodeStringE.exit

33:                                               ; preds = %31
  %34 = getelementptr inbounds nuw i8, ptr %.06.i, i64 2
  %35 = load i16, ptr %.06.i, align 2, !tbaa !27
  %36 = icmp ugt i16 %35, 127
  br i1 %36, label %_ZN6icu_77L13isASCIIStringERKNS_13UnicodeStringE.exit.thread, label %31, !llvm.loop !33

_ZN6icu_77L13isASCIIStringERKNS_13UnicodeStringE.exit: ; preds = %31
  %37 = icmp eq i32 %14, 254
  br i1 %37, label %_ZNK6icu_7713UnicodeStringixEi.exit, label %_ZNK6icu_7713UnicodeStringixEi.exit.thread

_ZNK6icu_7713UnicodeStringixEi.exit:              ; preds = %_ZN6icu_77L13isASCIIStringERKNS_13UnicodeStringE.exit
  %38 = and i16 %8, 2
  %.not.i.i.i = icmp eq i16 %38, 0
  %39 = getelementptr inbounds nuw i8, ptr %2, i64 10
  %40 = getelementptr inbounds nuw i8, ptr %2, i64 24
  %41 = load ptr, ptr %40, align 8
  %42 = select i1 %.not.i.i.i, ptr %41, ptr %39
  %43 = getelementptr inbounds nuw i8, ptr %42, i64 506
  %44 = load i16, ptr %43, align 2, !tbaa !27
  %.not12 = icmp eq i16 %44, 46
  br i1 %.not12, label %_ZN6icu_77L13isASCIIStringERKNS_13UnicodeStringE.exit.thread, label %_ZNK6icu_7713UnicodeStringixEi.exit.thread

_ZNK6icu_7713UnicodeStringixEi.exit.thread:       ; preds = %_ZNK6icu_7713UnicodeStringixEi.exit, %_ZN6icu_77L13isASCIIStringERKNS_13UnicodeStringE.exit
  %45 = or disjoint i32 %17, 4
  store i32 %45, ptr %3, align 4, !tbaa !26
  br label %_ZN6icu_77L13isASCIIStringERKNS_13UnicodeStringE.exit.thread

_ZN6icu_77L13isASCIIStringERKNS_13UnicodeStringE.exit.thread: ; preds = %33, %_ZNK6icu_7713UnicodeStringixEi.exit.thread, %_ZNK6icu_7713UnicodeStringixEi.exit, %16, %5
  ret ptr %2
}